(dp1
S'train_alg'
p2
(dp3
I0
(dp4
S'username'
p5
Vaaa
p6
sS'alg'
p7
S'ce'
p8
sS'train_times'
p9
I0
sS'no'
p10
I0
ssI1
(dp11
g5
g6
sg7
S'th'
p12
sg9
I0
sg10
I1
ssI2
(dp13
g5
g6
sg7
S'qz'
p14
sg9
I0
sg10
I2
ssI3
(dp15
g5
g6
sg7
S'wo'
p16
sg9
I0
sg10
I3
ssI4
(dp17
g5
g6
sg7
S'jl'
p18
sg9
I0
sg10
I4
sssS'user'
p19
(dp20
V
(dp21
S'username'
p22
V
sS'right_face'
p23
V
sS'up_face'
p24
V
sS'e_buffer'
p25
V
sS'front_face'
p26
V
sS'password'
p27
V
sS'c_buffer'
p28
V
ssVaaa
p29
(dp30
S'username'
p31
Vaaa
p32
sS'right_face'
p33
Vj
sS'up_face'
p34
Vb
sS'e_buffer'
p35
Vff
p36
sS'front_face'
p37
Vh
sS'password'
p38
Vdsdsd
p39
sS'c_buffer'
p40
Vg
sss.