(dp1
S'train_alg'
p2
(dp3
I0
(dp4
S'username'
p5
Vaaa
p6
sS'alg'
p7
S'ce'
p8
sS'train_times'
p9
I0
sS'no'
p10
I0
ssI1
(dp11
g5
g6
sg7
S'th'
p12
sg9
I0
sg10
I1
ssI2
(dp13
g5
g6
sg7
S'qz'
p14
sg9
I0
sg10
I2
ssI3
(dp15
g5
g6
sg7
S'wo'
p16
sg9
I0
sg10
I3
ssI4
(dp17
g5
g6
sg7
S'jl'
p18
sg9
I0
sg10
I4
sssS'user'
p19
(dp20
Vaaa
p21
(dp22
S'username'
p23
g21
sS'right_face'
p24
Vr
sS'up_face'
p25
Vy
sS'e_buffer'
p26
Va
sS'front_face'
p27
Vb
sS'password'
p28
Vccc@163.com
p29
sS'c_buffer'
p30
VO
sss.