(dp1
S'train_alg'
p2
(S'no'
p3
(lp4
g3
aS'alg'
p5
aS'username'
p6
aS'train_times'
p7
atp8
sS'user'
p9
(S'username'
p10
(lp11
g10
aS'password'
p12
aS'email'
p13
aS'c_buffer'
p14
aS'e_buffer'
p15
aS'up_face'
p16
aS'front_face'
p17
aS'right_face'
p18
atp19
s.