(dp1
S'user'
p2
(dp3
Vspoon
p4
(dp5
S'username'
p6
Vspoon
p7
sS'right_face'
p8
Vred
p9
sS'up_face'
p10
Vyellow
p11
sS'e_buffer'
p12
Vcd
p13
sS'front_face'
p14
Vblue
p15
sS'password'
p16
Vspoon@111.com
p17
sS'c_buffer'
p18
Vab
p19
ssVgrayloo
p20
(dp21
S'username'
p22
g20
sS'right_face'
p23
Vred
p24
sS'up_face'
p25
Vyellow
p26
sS'e_buffer'
p27
Vb
sS'front_face'
p28
Vblue
p29
sS'password'
p30
Vgrayloo@111.com
p31
sS'c_buffer'
p32
Va
sss.